target datalayout = "e-m:e-p270:32:32-p271:32:32-p272:64:64-i64:64-i128:128-f80:128-n8:16:32:64-S128"
target triple = "x86_64-pc-linux-gnu"

%struct.WalRcvData = type { i32, i32, i32, %struct.ConditionVariable, i64, i64, i32, i64, i32, i64, i64, i64, i64, i64, [1024 x i8], [1025 x i8], i32, [64 x i8], i8, i8, i8, %struct.pg_atomic_uint64, i32 }
%struct.ConditionVariable = type { i8, %struct.proclist_head }
%struct.proclist_head = type { i32, i32 }
%struct.pg_atomic_uint64 = type { i64 }

@.str.1 = private unnamed_addr constant [14 x i8] c"walreceiver.c\00", align 1
@WalRcv = external global ptr, align 8
@__func__.ProcessWalSndrMessage = private unnamed_addr constant [22 x i8] c"ProcessWalSndrMessage\00", align 1
@.str.32 = private unnamed_addr constant [80 x i8] c"sendtime %s receipttime %s replication apply delay (N/A) transfer latency %d ms\00", align 1
@.str.33 = private unnamed_addr constant [80 x i8] c"sendtime %s receipttime %s replication apply delay %d ms transfer latency %d ms\00", align 1

; Function Attrs: inlinehint nounwind uwtable
define internal i32 @tas(ptr noundef %0) #6 {
  %2 = alloca ptr, align 8
  %3 = alloca i8, align 1
  store ptr %0, ptr %2, align 8
  call void @llvm.lifetime.start.p0(i64 1, ptr %3) #16
  store i8 1, ptr %3, align 1
  %4 = load i8, ptr %3, align 1
  %5 = load ptr, ptr %2, align 8
  %6 = call i8 asm sideeffect "\09lock\09\09\09\0A\09xchgb\09$0,$1\09\0A", "=q,=*m,0,*m,~{memory},~{cc},~{dirflag},~{fpsr},~{flags}"(ptr elementtype(i8) %5, i8 %4, ptr elementtype(i8) %5) #16, !srcloc !16
  store i8 %6, ptr %3, align 1
  %7 = load i8, ptr %3, align 1
  %8 = zext i8 %7 to i32
  call void @llvm.lifetime.end.p0(i64 1, ptr %3) #16
  ret i32 %8
}

; Function Attrs: nounwind uwtable
define internal void @ProcessWalSndrMessage(i64 noundef %0, i64 noundef %1) #0 {
  %3 = alloca i64, align 8
  %4 = alloca i64, align 8
  %5 = alloca ptr, align 8
  %6 = alloca i64, align 8
  %7 = alloca ptr, align 8
  %8 = alloca ptr, align 8
  %9 = alloca i32, align 4
  store i64 %0, ptr %3, align 8
  store i64 %1, ptr %4, align 8
  call void @llvm.lifetime.start.p0(i64 8, ptr %5) #16
  %10 = load ptr, ptr @WalRcv, align 8
  store ptr %10, ptr %5, align 8
  call void @llvm.lifetime.start.p0(i64 8, ptr %6) #16
  %11 = call i64 @GetCurrentTimestamp()
  store i64 %11, ptr %6, align 8
  %12 = load ptr, ptr %5, align 8
  %13 = getelementptr inbounds nuw %struct.WalRcvData, ptr %12, i32 0, i32 20
  %14 = call i32 @tas(ptr noundef %13)
  %15 = icmp ne i32 %14, 0
  br i1 %15, label %16, label %20

16:                                               ; preds = %2
  %17 = load ptr, ptr %5, align 8
  %18 = getelementptr inbounds nuw %struct.WalRcvData, ptr %17, i32 0, i32 20
  %19 = call i32 @s_lock(ptr noundef %18, ptr noundef @.str.1, i32 noundef 1272, ptr noundef @__func__.ProcessWalSndrMessage)
  br label %21

20:                                               ; preds = %2
  br label %21

21:                                               ; preds = %20, %16
  %22 = load ptr, ptr %5, align 8
  %23 = getelementptr inbounds nuw %struct.WalRcvData, ptr %22, i32 0, i32 12
  %24 = load i64, ptr %23, align 8
  %25 = load i64, ptr %3, align 8
  %26 = icmp ult i64 %24, %25
  br i1 %26, label %27, label %31

27:                                               ; preds = %21
  %28 = load i64, ptr %4, align 8
  %29 = load ptr, ptr %5, align 8
  %30 = getelementptr inbounds nuw %struct.WalRcvData, ptr %29, i32 0, i32 13
  store i64 %28, ptr %30, align 8
  br label %31

31:                                               ; preds = %27, %21
  %32 = load i64, ptr %3, align 8
  %33 = load ptr, ptr %5, align 8
  %34 = getelementptr inbounds nuw %struct.WalRcvData, ptr %33, i32 0, i32 12
  store i64 %32, ptr %34, align 8
  %35 = load i64, ptr %4, align 8
  %36 = load ptr, ptr %5, align 8
  %37 = getelementptr inbounds nuw %struct.WalRcvData, ptr %36, i32 0, i32 10
  store i64 %35, ptr %37, align 8
  %38 = load i64, ptr %6, align 8
  %39 = load ptr, ptr %5, align 8
  %40 = getelementptr inbounds nuw %struct.WalRcvData, ptr %39, i32 0, i32 11
  store i64 %38, ptr %40, align 8
  br label %41

41:                                               ; preds = %31
  call void asm sideeffect "", "~{memory},~{dirflag},~{fpsr},~{flags}"() #16, !srcloc !27
  %42 = load ptr, ptr %5, align 8
  %43 = getelementptr inbounds nuw %struct.WalRcvData, ptr %42, i32 0, i32 20
  store i8 0, ptr %43, align 2
  br label %44

44:                                               ; preds = %41
  br label %45

45:                                               ; preds = %44
  %46 = call zeroext i1 @message_level_is_interesting(i32 noundef 13)
  br i1 %46, label %47, label %89

47:                                               ; preds = %45
  call void @llvm.lifetime.start.p0(i64 8, ptr %7) #16
  call void @llvm.lifetime.start.p0(i64 8, ptr %8) #16
  call void @llvm.lifetime.start.p0(i64 4, ptr %9) #16
  %48 = load i64, ptr %4, align 8
  %49 = call ptr @timestamptz_to_str(i64 noundef %48)
  %50 = call ptr @pstrdup(ptr noundef %49)
  store ptr %50, ptr %7, align 8
  %51 = load i64, ptr %6, align 8
  %52 = call ptr @timestamptz_to_str(i64 noundef %51)
  %53 = call ptr @pstrdup(ptr noundef %52)
  store ptr %53, ptr %8, align 8
  %54 = call i32 @GetReplicationApplyDelay()
  store i32 %54, ptr %9, align 4
  %55 = load i32, ptr %9, align 4
  %56 = icmp eq i32 %55, -1
  br i1 %56, label %57, label %71

57:                                               ; preds = %47
  br label %58

58:                                               ; preds = %57
  br i1 false, label %59, label %61

59:                                               ; preds = %58
  %60 = call zeroext i1 @errstart_cold(i32 noundef 13, ptr noundef null) #15
  br i1 %60, label %63, label %68

61:                                               ; preds = %58
  %62 = call zeroext i1 @errstart(i32 noundef 13, ptr noundef null)
  br i1 %62, label %63, label %68

63:                                               ; preds = %61, %59
  %64 = load ptr, ptr %7, align 8
  %65 = load ptr, ptr %8, align 8
  %66 = call i32 @GetReplicationTransferLatency()
  %67 = call i32 (ptr, ...) @errmsg_internal(ptr noundef @.str.32, ptr noundef %64, ptr noundef %65, i32 noundef %66)
  call void @errfinish(ptr noundef @.str.1, i32 noundef 1296, ptr noundef @__func__.ProcessWalSndrMessage)
  br label %68

68:                                               ; preds = %63, %61, %59
  br label %69

69:                                               ; preds = %68
  br label %70

70:                                               ; preds = %69
  br label %86

71:                                               ; preds = %47
  br label %72

72:                                               ; preds = %71
  br i1 false, label %73, label %75

73:                                               ; preds = %72
  %74 = call zeroext i1 @errstart_cold(i32 noundef 13, ptr noundef null) #15
  br i1 %74, label %77, label %83

75:                                               ; preds = %72
  %76 = call zeroext i1 @errstart(i32 noundef 13, ptr noundef null)
  br i1 %76, label %77, label %83

77:                                               ; preds = %75, %73
  %78 = load ptr, ptr %7, align 8
  %79 = load ptr, ptr %8, align 8
  %80 = load i32, ptr %9, align 4
  %81 = call i32 @GetReplicationTransferLatency()
  %82 = call i32 (ptr, ...) @errmsg_internal(ptr noundef @.str.33, ptr noundef %78, ptr noundef %79, i32 noundef %80, i32 noundef %81)
  call void @errfinish(ptr noundef @.str.1, i32 noundef 1302, ptr noundef @__func__.ProcessWalSndrMessage)
  br label %83

83:                                               ; preds = %77, %75, %73
  br label %84

84:                                               ; preds = %83
  br label %85

85:                                               ; preds = %84
  br label %86

86:                                               ; preds = %85, %70
  %87 = load ptr, ptr %7, align 8
  call void @pfree(ptr noundef %87)
  %88 = load ptr, ptr %8, align 8
  call void @pfree(ptr noundef %88)
  call void @llvm.lifetime.end.p0(i64 4, ptr %9) #16
  call void @llvm.lifetime.end.p0(i64 8, ptr %8) #16
  call void @llvm.lifetime.end.p0(i64 8, ptr %7) #16
  br label %89

89:                                               ; preds = %86, %45
  call void @llvm.lifetime.end.p0(i64 8, ptr %6) #16
  call void @llvm.lifetime.end.p0(i64 8, ptr %5) #16
  ret void
}