; Function Attrs: nounwind uwtable
define internal fastcc void @ProcessWalSndrMessage(i64 noundef %0, i64 noundef %1) unnamed_addr #0 {
  %3 = load ptr, ptr @WalRcv, align 8
  %4 = tail call i64 @GetCurrentTimestamp() #16
  %5 = getelementptr inbounds nuw i8, ptr %3, i64 2226
  %6 = tail call i8 asm sideeffect "\09lock\09\09\09\0A\09xchgb\09$0,$1\09\0A", "=q,=*m,0,*m,~{memory},~{cc},~{dirflag},~{fpsr},~{flags}"(ptr nonnull elementtype(i8) %5, i8 1, ptr nonnull elementtype(i8) %5) #16, !srcloc !5
  %.not = icmp eq i8 %6, 0
  br i1 %.not, label %9, label %7

7:                                                ; preds = %2
  %8 = tail call i32 @s_lock(ptr noundef nonnull %5, ptr noundef nonnull @.str.1, i32 noundef 1272, ptr noundef nonnull @__func__.ProcessWalSndrMessage) #16
  br label %9

9:                                                ; preds = %2, %7
  %10 = getelementptr inbounds nuw i8, ptr %3, i64 88
  %11 = load i64, ptr %10, align 8
  %12 = icmp ult i64 %11, %0
  br i1 %12, label %13, label %15

13:                                               ; preds = %9
  %14 = getelementptr inbounds nuw i8, ptr %3, i64 96
  store i64 %1, ptr %14, align 8
  br label %15

15:                                               ; preds = %13, %9
  store i64 %0, ptr %10, align 8
  %16 = getelementptr inbounds nuw i8, ptr %3, i64 72
  store i64 %1, ptr %16, align 8
  %17 = getelementptr inbounds nuw i8, ptr %3, i64 80
  store i64 %4, ptr %17, align 8
  tail call void asm sideeffect "", "~{memory},~{dirflag},~{fpsr},~{flags}"() #16, !srcloc !27
  store i8 0, ptr %5, align 2
  %18 = tail call zeroext i1 @message_level_is_interesting(i32 noundef 13) #16
  br i1 %18, label %19, label %36

19:                                               ; preds = %15
  %20 = tail call ptr @timestamptz_to_str(i64 noundef %1) #16
  %21 = tail call ptr @pstrdup(ptr noundef %20) #16
  %22 = tail call ptr @timestamptz_to_str(i64 noundef %4) #16
  %23 = tail call ptr @pstrdup(ptr noundef %22) #16
  %24 = tail call i32 @GetReplicationApplyDelay() #16
  %25 = icmp eq i32 %24, -1
  %26 = tail call zeroext i1 @errstart(i32 noundef 13, ptr noundef null) #16
  br i1 %25, label %27, label %31

27:                                               ; preds = %19
  br i1 %26, label %28, label %35

28:                                               ; preds = %27
  %29 = tail call i32 @GetReplicationTransferLatency() #16
  %30 = tail call i32 (ptr, ...) @errmsg_internal(ptr noundef nonnull @.str.32, ptr noundef %21, ptr noundef %23, i32 noundef %29) #16
  br label %.sink.split

31:                                               ; preds = %19
  br i1 %26, label %32, label %35

32:                                               ; preds = %31
  %33 = tail call i32 @GetReplicationTransferLatency() #16
  %34 = tail call i32 (ptr, ...) @errmsg_internal(ptr noundef nonnull @.str.33, ptr noundef %21, ptr noundef %23, i32 noundef %24, i32 noundef %33) #16
  br label %.sink.split

.sink.split:                                      ; preds = %28, %32
  %.sink = phi i32 [ 1302, %32 ], [ 1296, %28 ]
  tail call void @errfinish(ptr noundef nonnull @.str.1, i32 noundef %.sink, ptr noundef nonnull @__func__.ProcessWalSndrMessage) #16
  br label %35

35:                                               ; preds = %.sink.split, %31, %27
  tail call void @pfree(ptr noundef %21) #16
  tail call void @pfree(ptr noundef %23) #16
  br label %36

36:                                               ; preds = %35, %15
  ret void
}